; ModuleID = '9/253.c'
source_filename = "9/253.c"
target datalayout = "e-m:e-p270:32:32-p271:32:32-p272:64:64-i64:64-f80:128-n8:16:32:64-S128"
target triple = "x86_64-pc-linux-gnu"

@.str = private unnamed_addr constant [3 x i8] c"%d\00", align 1
@.str.1 = private unnamed_addr constant [6 x i8] c"%s %d\00", align 1
@.str.2 = private unnamed_addr constant [4 x i8] c"%s\0A\00", align 1

; Function Attrs: noinline nounwind uwtable
define dso_local void @main() #0 {
  %1 = alloca i32, align 4
  %2 = alloca i32, align 4
  %3 = alloca i32, align 4
  %4 = alloca [100 x i32], align 16
  %5 = alloca [100 x i32], align 16
  %6 = alloca i32, align 4
  %7 = alloca i32, align 4
  %8 = alloca i32, align 4
  %9 = alloca [100 x [10 x i8]], align 16
  store i32 0, i32* %1, align 4
  store i32 0, i32* %2, align 4
  store i32 0, i32* %7, align 4
  store i32 59, i32* %8, align 4
  %10 = call i32 (i8*, ...) @__isoc99_scanf(i8* getelementptr inbounds ([3 x i8], [3 x i8]* @.str, i64 0, i64 0), i32* %3)
  store i32 0, i32* %1, align 4
  br label %11

11:                                               ; preds = %33, %0
  %12 = load i32, i32* %1, align 4
  %13 = load i32, i32* %3, align 4
  %14 = icmp slt i32 %12, %13
  br i1 %14, label %15, label %36

15:                                               ; preds = %11
  %16 = load i32, i32* %1, align 4
  %17 = sext i32 %16 to i64
  %18 = getelementptr inbounds [100 x [10 x i8]], [100 x [10 x i8]]* %9, i64 0, i64 %17
  %19 = getelementptr inbounds [10 x i8], [10 x i8]* %18, i64 0, i64 0
  %20 = load i32, i32* %1, align 4
  %21 = sext i32 %20 to i64
  %22 = getelementptr inbounds [100 x i32], [100 x i32]* %4, i64 0, i64 %21
  %23 = call i32 (i8*, ...) @__isoc99_scanf(i8* getelementptr inbounds ([6 x i8], [6 x i8]* @.str.1, i64 0, i64 0), i8* %19, i32* %22)
  %24 = load i32, i32* %1, align 4
  %25 = sext i32 %24 to i64
  %26 = getelementptr inbounds [100 x i32], [100 x i32]* %4, i64 0, i64 %25
  %27 = load i32, i32* %26, align 4
  %28 = icmp sge i32 %27, 60
  br i1 %28, label %29, label %32

29:                                               ; preds = %15
  %30 = load i32, i32* %7, align 4
  %31 = add nsw i32 %30, 1
  store i32 %31, i32* %7, align 4
  br label %32

32:                                               ; preds = %29, %15
  br label %33

33:                                               ; preds = %32
  %34 = load i32, i32* %1, align 4
  %35 = add nsw i32 %34, 1
  store i32 %35, i32* %1, align 4
  br label %11

36:                                               ; preds = %11
  store i32 0, i32* %2, align 4
  br label %37

37:                                               ; preds = %71, %36
  %38 = load i32, i32* %2, align 4
  %39 = load i32, i32* %7, align 4
  %40 = icmp slt i32 %38, %39
  br i1 %40, label %41, label %74

41:                                               ; preds = %37
  store i32 0, i32* %1, align 4
  br label %42

42:                                               ; preds = %60, %41
  %43 = load i32, i32* %1, align 4
  %44 = load i32, i32* %3, align 4
  %45 = icmp slt i32 %43, %44
  br i1 %45, label %46, label %63

46:                                               ; preds = %42
  %47 = load i32, i32* %1, align 4
  %48 = sext i32 %47 to i64
  %49 = getelementptr inbounds [100 x i32], [100 x i32]* %4, i64 0, i64 %48
  %50 = load i32, i32* %49, align 4
  %51 = load i32, i32* %8, align 4
  %52 = icmp sgt i32 %50, %51
  br i1 %52, label %53, label %59

53:                                               ; preds = %46
  %54 = load i32, i32* %1, align 4
  %55 = sext i32 %54 to i64
  %56 = getelementptr inbounds [100 x i32], [100 x i32]* %4, i64 0, i64 %55
  %57 = load i32, i32* %56, align 4
  store i32 %57, i32* %8, align 4
  %58 = load i32, i32* %1, align 4
  store i32 %58, i32* %6, align 4
  br label %59

59:                                               ; preds = %53, %46
  br label %60

60:                                               ; preds = %59
  %61 = load i32, i32* %1, align 4
  %62 = add nsw i32 %61, 1
  store i32 %62, i32* %1, align 4
  br label %42

63:                                               ; preds = %42
  %64 = load i32, i32* %6, align 4
  %65 = sext i32 %64 to i64
  %66 = getelementptr inbounds [100 x i32], [100 x i32]* %4, i64 0, i64 %65
  store i32 0, i32* %66, align 4
  %67 = load i32, i32* %6, align 4
  %68 = load i32, i32* %2, align 4
  %69 = sext i32 %68 to i64
  %70 = getelementptr inbounds [100 x i32], [100 x i32]* %5, i64 0, i64 %69
  store i32 %67, i32* %70, align 4
  store i32 59, i32* %8, align 4
  br label %71

71:                                               ; preds = %63
  %72 = load i32, i32* %2, align 4
  %73 = add nsw i32 %72, 1
  store i32 %73, i32* %2, align 4
  br label %37

74:                                               ; preds = %37
  store i32 0, i32* %2, align 4
  br label %75

75:                                               ; preds = %88, %74
  %76 = load i32, i32* %2, align 4
  %77 = load i32, i32* %7, align 4
  %78 = icmp slt i32 %76, %77
  br i1 %78, label %79, label %91

79:                                               ; preds = %75
  %80 = load i32, i32* %2, align 4
  %81 = sext i32 %80 to i64
  %82 = getelementptr inbounds [100 x i32], [100 x i32]* %5, i64 0, i64 %81
  %83 = load i32, i32* %82, align 4
  %84 = sext i32 %83 to i64
  %85 = getelementptr inbounds [100 x [10 x i8]], [100 x [10 x i8]]* %9, i64 0, i64 %84
  %86 = getelementptr inbounds [10 x i8], [10 x i8]* %85, i64 0, i64 0
  %87 = call i32 (i8*, ...) @printf(i8* getelementptr inbounds ([4 x i8], [4 x i8]* @.str.2, i64 0, i64 0), i8* %86)
  br label %88

88:                                               ; preds = %79
  %89 = load i32, i32* %2, align 4
  %90 = add nsw i32 %89, 1
  store i32 %90, i32* %2, align 4
  br label %75

91:                                               ; preds = %75
  store i32 0, i32* %1, align 4
  br label %92

92:                                               ; preds = %115, %91
  %93 = load i32, i32* %1, align 4
  %94 = load i32, i32* %3, align 4
  %95 = icmp slt i32 %93, %94
  br i1 %95, label %96, label %118

96:                                               ; preds = %92
  %97 = load i32, i32* %1, align 4
  %98 = sext i32 %97 to i64
  %99 = getelementptr inbounds [100 x i32], [100 x i32]* %4, i64 0, i64 %98
  %100 = load i32, i32* %99, align 4
  %101 = icmp sgt i32 %100, 0
  br i1 %101, label %102, label %114

102:                                              ; preds = %96
  %103 = load i32, i32* %1, align 4
  %104 = sext i32 %103 to i64
  %105 = getelementptr inbounds [100 x i32], [100 x i32]* %4, i64 0, i64 %104
  %106 = load i32, i32* %105, align 4
  %107 = icmp slt i32 %106, 60
  br i1 %107, label %108, label %114

108:                                              ; preds = %102
  %109 = load i32, i32* %1, align 4
  %110 = sext i32 %109 to i64
  %111 = getelementptr inbounds [100 x [10 x i8]], [100 x [10 x i8]]* %9, i64 0, i64 %110
  %112 = getelementptr inbounds [10 x i8], [10 x i8]* %111, i64 0, i64 0
  %113 = call i32 (i8*, ...) @printf(i8* getelementptr inbounds ([4 x i8], [4 x i8]* @.str.2, i64 0, i64 0), i8* %112)
  br label %114

114:                                              ; preds = %108, %102, %96
  br label %115

115:                                              ; preds = %114
  %116 = load i32, i32* %1, align 4
  %117 = add nsw i32 %116, 1
  store i32 %117, i32* %1, align 4
  br label %92

118:                                              ; preds = %92
  ret void
}

declare dso_local i32 @__isoc99_scanf(i8*, ...) #1

declare dso_local i32 @printf(i8*, ...) #1


!llvm.module.flags = !{!0}
!llvm.ident = !{!1}

!0 = !{i32 1, !"wchar_size", i32 4}
!1 = !{!"clang version 10.0.0-4ubuntu1 "}
